	.arch armv6
	.eabi_attribute 28, 1
	.eabi_attribute 20, 1
	.eabi_attribute 21, 1
	.eabi_attribute 23, 3
	.eabi_attribute 24, 1
	.eabi_attribute 25, 1
	.eabi_attribute 26, 2
	.eabi_attribute 30, 2
	.eabi_attribute 34, 1
	.eabi_attribute 18, 4
	.file	"f.cc"
	.text
	.align	2
	.global	_Z1fv
	.arch armv6
	.syntax unified
	.arm
	.fpu vfp
	.type	_Z1fv, %function
_Z1fv:
	.fnstart
.LFB0:
	@ args = 0, pretend = 0, frame = 0
	@ frame_needed = 0, uses_anonymous_args = 0
	@ link register save eliminated.
	bx	lr
	.cantunwind
	.fnend
	.size	_Z1fv, .-_Z1fv
	.align	2
	.global	_Z1fi
	.syntax unified
	.arm
	.fpu vfp
	.type	_Z1fi, %function
_Z1fi:
	.fnstart
.LFB1:
	@ args = 0, pretend = 0, frame = 0
	@ frame_needed = 0, uses_anonymous_args = 0
	@ link register save eliminated.
	bx	lr
	.cantunwind
	.fnend
	.size	_Z1fi, .-_Z1fi
	.align	2
	.global	_Z1fii
	.syntax unified
	.arm
	.fpu vfp
	.type	_Z1fii, %function
_Z1fii:
	.fnstart
.LFB2:
	@ args = 0, pretend = 0, frame = 0
	@ frame_needed = 0, uses_anonymous_args = 0
	@ link register save eliminated.
	bx	lr
	.cantunwind
	.fnend
	.size	_Z1fii, .-_Z1fii
	.align	2
	.global	_Z1fiii
	.syntax unified
	.arm
	.fpu vfp
	.type	_Z1fiii, %function
_Z1fiii:
	.fnstart
.LFB3:
	@ args = 0, pretend = 0, frame = 0
	@ frame_needed = 0, uses_anonymous_args = 0
	@ link register save eliminated.
	bx	lr
	.cantunwind
	.fnend
	.size	_Z1fiii, .-_Z1fiii
	.align	2
	.global	_Z1fiiii
	.syntax unified
	.arm
	.fpu vfp
	.type	_Z1fiiii, %function
_Z1fiiii:
	.fnstart
.LFB4:
	@ args = 0, pretend = 0, frame = 0
	@ frame_needed = 0, uses_anonymous_args = 0
	@ link register save eliminated.
	bx	lr
	.cantunwind
	.fnend
	.size	_Z1fiiii, .-_Z1fiiii
	.align	2
	.global	_Z1fiiiii
	.syntax unified
	.arm
	.fpu vfp
	.type	_Z1fiiiii, %function
_Z1fiiiii:
	.fnstart
.LFB5:
	@ args = 4, pretend = 0, frame = 0
	@ frame_needed = 0, uses_anonymous_args = 0
	@ link register save eliminated.
	bx	lr
	.cantunwind
	.fnend
	.size	_Z1fiiiii, .-_Z1fiiiii
	.ident	"GCC: (Raspbian 8.3.0-6+rpi1) 8.3.0"
	.section	.note.GNU-stack,"",%progbits
